target datalayout = "e-m:e-p270:32:32-p271:32:32-p272:64:64-i64:64-i128:128-f80:128-n8:16:32:64-S128"
target triple = "x86_64-pc-linux-gnu"

%struct.tdefl_compressor = type { ptr, ptr, i32, [2 x i32], i32, i32, i32, i32, i32, ptr, ptr, ptr, ptr, i32, i32, i32, i32, i32, i32, i32, i32, i32, i32, i32, i32, i32, i32, ptr, ptr, ptr, ptr, i32, ptr, i64, i64, [33025 x i8], [3 x [288 x i16]], [3 x [288 x i16]], [3 x [288 x i8]], [65536 x i8], [32768 x i16], [32768 x i16], [85196 x i8] }
%struct.mz_zip_archive = type { i64, i64, i32, i32, i32, i32, i64, ptr, ptr, ptr, ptr, ptr, ptr, ptr, ptr, ptr }
%struct.mz_zip_internal_state_tag = type { %struct.mz_zip_array, %struct.mz_zip_array, %struct.mz_zip_array, i32, i32, i32, ptr, i64, ptr, i64, i64 }
%struct.mz_zip_array = type { ptr, i64, i64, i32 }
%struct.mz_zip_writer_add_state = type { ptr, i64, i64 }
%struct.zip_t = type { %struct.mz_zip_archive, i32, %struct.zip_entry_t }
%struct.zip_entry_t = type { i64, ptr, i64, i64, i32, i64, [30 x i8], i64, i16, %struct.mz_zip_writer_add_state, %struct.tdefl_compressor, i32, i64 }

; Function Attrs: nounwind uwtable
define i32 @zip_is64(ptr noundef %0) #0 {
  %2 = alloca i32, align 4
  %3 = alloca ptr, align 8
  store ptr %0, ptr %3, align 8
  %4 = load ptr, ptr %3, align 8
  %5 = icmp ne ptr %4, null
  br i1 %5, label %6, label %12

6:                                                ; preds = %1
  %7 = load ptr, ptr %3, align 8
  %8 = getelementptr inbounds nuw %struct.zip_t, ptr %7, i32 0, i32 0
  %9 = getelementptr inbounds nuw %struct.mz_zip_archive, ptr %8, i32 0, i32 15
  %10 = load ptr, ptr %9, align 8
  %11 = icmp ne ptr %10, null
  br i1 %11, label %13, label %12

12:                                               ; preds = %6, %1
  store i32 -1, ptr %2, align 4
  br label %20

13:                                               ; preds = %6
  %14 = load ptr, ptr %3, align 8
  %15 = getelementptr inbounds nuw %struct.zip_t, ptr %14, i32 0, i32 0
  %16 = getelementptr inbounds nuw %struct.mz_zip_archive, ptr %15, i32 0, i32 15
  %17 = load ptr, ptr %16, align 8
  %18 = getelementptr inbounds nuw %struct.mz_zip_internal_state_tag, ptr %17, i32 0, i32 4
  %19 = load i32, ptr %18, align 4
  store i32 %19, ptr %2, align 4
  br label %20

20:                                               ; preds = %13, %12
  %21 = load i32, ptr %2, align 4
  ret i32 %21
}